EXPORTS
	_Z9LibEntryLR13CTestModuleIf @ 1 NONAME
	_ZN14CVCXTestCommon10VerifyDataER7TDesC16RN19CIptvTestVerifyData13TVerifyResultE @ 2 NONAME ABSENT
	_ZN14CVCXTestCommon11GetFileSizeER7TDesC16Rm @ 3 NONAME ABSENT
	_ZN14CVCXTestCommon11SetTimeZoneER7TDesC16 @ 4 NONAME ABSENT
	_ZN14CVCXTestCommon13CreateBadIapLER7TDesC16 @ 5 NONAME ABSENT
	_ZN14CVCXTestCommon13GetPSPropertyE4TUidjR6TDes16 @ 6 NONAME ABSENT
	_ZN14CVCXTestCommon13GetPSPropertyE4TUidjRi @ 7 NONAME ABSENT
	_ZN14CVCXTestCommon13SetPSPropertyE4TUidjRK7TDesC16 @ 8 NONAME ABSENT
	_ZN14CVCXTestCommon13SetPSPropertyE4TUidji @ 9 NONAME ABSENT
	_ZN14CVCXTestCommon13SetSystemTimeE5TTime @ 10 NONAME ABSENT
	_ZN14CVCXTestCommon14GetIapNameByIdER6TDes16m @ 11 NONAME ABSENT
	_ZN14CVCXTestCommon15GetIapIdByNameLERK7TDesC16Rm @ 12 NONAME ABSENT
	_ZN14CVCXTestCommon15GetIapIdByTypeLENS_16TIptvTestIapTypeERmi @ 13 NONAME ABSENT
	_ZN14CVCXTestCommon15WriteVerifyDataER7TDesC1611TRefByValueIKS0_Ez @ 14 NONAME ABSENT
	_ZN14CVCXTestCommon15WriteVerifyDataER7TDesC16S1_ @ 15 NONAME ABSENT
	_ZN14CVCXTestCommon16CreateVerifyDataER7TDesC16i @ 16 NONAME ABSENT
	_ZN14CVCXTestCommon16CreateVideoFileLEN21CIptvTestVideoCreator18TIptvTestVideoTypeER7TDesC16i @ 17 NONAME ABSENT
	_ZN14CVCXTestCommon17CreateVideoFilesLEN21CIptvTestVideoCreator18TIptvTestVideoTypeER7TDesC16iR13RPointerArrayI7HBufC16E @ 18 NONAME ABSENT
	_ZN14CVCXTestCommon17DeleteDummyFilesLEi @ 19 NONAME ABSENT
	_ZN14CVCXTestCommon18ParseIntFromStringERiR7TDesC16 @ 20 NONAME ABSENT
	_ZN14CVCXTestCommon18SetDriveFreeSpaceLEij @ 21 NONAME ABSENT
	_ZN14CVCXTestCommon20EnsureFileIsNotInUseERK7TPtrC16 @ 22 NONAME ABSENT
	_ZN14CVCXTestCommon22AdvanceSystemTimeHoursEi @ 23 NONAME ABSENT
	_ZN14CVCXTestCommon22EnableVerifyTimestampsEi @ 24 NONAME ABSENT
	_ZN14CVCXTestCommon24AdvanceSystemTimeMinutesEi @ 25 NONAME ABSENT
	_ZN14CVCXTestCommon24AdvanceSystemTimeSecondsEi @ 26 NONAME ABSENT
	_ZN14CVCXTestCommon4NewLEv @ 27 NONAME ABSENT
	_ZN14CVCXTestCommon7ListDirERK7TDesC16i @ 28 NONAME ABSENT
	_ZN14CVCXTestCommon9GetIapIdLERK7TDesC16Rm @ 29 NONAME ABSENT
	_ZN14CVCXTestCommon9PrintIapsEv @ 30 NONAME ABSENT
	_ZTI14CVCXTestCommon @ 31 NONAME ABSENT ; #<TI>#
	_ZTV14CVCXTestCommon @ 32 NONAME ABSENT ; #<VT>#

