EXPORTS
	_ZN14CIptvTestEvent10DeactivateEv @ 1 NONAME
	_ZN14CIptvTestEvent12HasTimeoutedER5TTime @ 2 NONAME
	_ZN14CIptvTestEvent7GetNameER6TDes16 @ 3 NONAME
	_ZN14CIptvTestEvent8ActivateEv @ 4 NONAME
	_ZN14CIptvTestEventC2ERK7TDesC16i @ 5 NONAME
	_ZN14CIptvTestEventD0Ev @ 6 NONAME
	_ZN14CIptvTestEventD1Ev @ 7 NONAME
	_ZN14CIptvTestEventD2Ev @ 8 NONAME
	_ZN14CIptvTestTimer11CancelTimerEv @ 9 NONAME
	_ZN14CIptvTestTimer4NewLER22MIptvTestTimerObserveri @ 10 NONAME
	_ZN14CIptvTestTimer5AfterE27TTimeIntervalMicroSeconds32 @ 11 NONAME
	_ZN14CIptvTestTimerD0Ev @ 12 NONAME
	_ZN14CIptvTestTimerD1Ev @ 13 NONAME
	_ZN14CIptvTestTimerD2Ev @ 14 NONAME
	_ZN14CVCXTestCommon10VerifyDataER7TDesC16RN19CIptvTestVerifyData13TVerifyResultE @ 15 NONAME
	_ZN14CVCXTestCommon11GetFileSizeER7TDesC16Rm @ 16 NONAME
	_ZN14CVCXTestCommon11SetTimeZoneER7TDesC16 @ 17 NONAME
	_ZN14CVCXTestCommon13CreateBadIapLER7TDesC16 @ 18 NONAME
	_ZN14CVCXTestCommon13GetPSPropertyE4TUidjR6TDes16 @ 19 NONAME
	_ZN14CVCXTestCommon13GetPSPropertyE4TUidjRi @ 20 NONAME
	_ZN14CVCXTestCommon13SetPSPropertyE4TUidjRK7TDesC16 @ 21 NONAME
	_ZN14CVCXTestCommon13SetPSPropertyE4TUidji @ 22 NONAME
	_ZN14CVCXTestCommon13SetSystemTimeE5TTime @ 23 NONAME
	_ZN14CVCXTestCommon14GetIapNameByIdER6TDes16m @ 24 NONAME
	_ZN14CVCXTestCommon15GetIapIdByNameLERK7TDesC16Rm @ 25 NONAME
	_ZN14CVCXTestCommon15GetIapIdByTypeLENS_16TIptvTestIapTypeERmi @ 26 NONAME
	_ZN14CVCXTestCommon15WriteVerifyDataER7TDesC1611TRefByValueIKS0_Ez @ 27 NONAME
	_ZN14CVCXTestCommon15WriteVerifyDataER7TDesC16S1_ @ 28 NONAME
	_ZN14CVCXTestCommon16CreateVerifyDataER7TDesC16i @ 29 NONAME
	_ZN14CVCXTestCommon16CreateVideoFileLEN21CIptvTestVideoCreator18TIptvTestVideoTypeER7TDesC16i @ 30 NONAME
	_ZN14CVCXTestCommon17CreateVideoFilesLEN21CIptvTestVideoCreator18TIptvTestVideoTypeER7TDesC16iR13RPointerArrayI7HBufC16E @ 31 NONAME
	_ZN14CVCXTestCommon17DeleteDummyFilesLEi @ 32 NONAME
	_ZN14CVCXTestCommon18ParseIntFromStringERiR7TDesC16 @ 33 NONAME
	_ZN14CVCXTestCommon18SetDriveFreeSpaceLEij @ 34 NONAME
	_ZN14CVCXTestCommon20EnsureFileIsNotInUseERK7TPtrC16 @ 35 NONAME
	_ZN14CVCXTestCommon22AdvanceSystemTimeHoursEi @ 36 NONAME
	_ZN14CVCXTestCommon22EnableVerifyTimestampsEi @ 37 NONAME
	_ZN14CVCXTestCommon24AdvanceSystemTimeMinutesEi @ 38 NONAME
	_ZN14CVCXTestCommon24AdvanceSystemTimeSecondsEi @ 39 NONAME
	_ZN14CVCXTestCommon4NewLEv @ 40 NONAME
	_ZN14CVCXTestCommon7ListDirERK7TDesC16i @ 41 NONAME
	_ZN14CVCXTestCommon9GetIapIdLERK7TDesC16Rm @ 42 NONAME
	_ZN14CVCXTestCommon9PrintIapsEv @ 43 NONAME
	_ZN16CIptvTestUtilALR11CopyMethodLER7TDesC16S1_S1_ @ 44 NONAME
	_ZN16CIptvTestUtilALR13DeleteMethodLER7TDesC16S1_ @ 45 NONAME
	_ZN16CIptvTestUtilALR17GetDestinationIdLER7TDesC16 @ 46 NONAME
	_ZN16CIptvTestUtilALR18CreateDestinationLER7TDesC16 @ 47 NONAME
	_ZN16CIptvTestUtilALR18DeleteDestinationLER7TDesC16 @ 48 NONAME
	_ZN16CIptvTestUtilALR18SetMethodPriorityLER7TDesC16S1_m @ 49 NONAME
	_ZN16CIptvTestUtilALR19SetUsedDestinationLER7TDesC16 @ 50 NONAME
	_ZN16CIptvTestUtilALR22SetMethodIntAttributeLER7TDesC16S1_ii @ 51 NONAME
	_ZN16CIptvTestUtilALR23SetMethodBoolAttributeLER7TDesC16S1_ii @ 52 NONAME
	_ZN16CIptvTestUtilALR25SetMethodStringAttributeLER7TDesC16S1_iS1_ @ 53 NONAME
	_ZN16CIptvTestUtilALR28RemoveUsedDestinationCenRepLEv @ 54 NONAME
	_ZN16CIptvTestUtilALR32TerminateDestinationConnectionsLER7TDesC16 @ 55 NONAME
	_ZN16CIptvTestUtilALR4NewLEv @ 56 NONAME
	_ZN16CIptvTestUtilALR5NewLCEv @ 57 NONAME
	_ZN16CIptvTestUtilALRD0Ev @ 58 NONAME
	_ZN16CIptvTestUtilALRD1Ev @ 59 NONAME
	_ZN16CIptvTestUtilALRD2Ev @ 60 NONAME
	_ZN17CVCXTestTimerWait10ConstructLEv @ 61 NONAME
	_ZN17CVCXTestTimerWait4NewLEv @ 62 NONAME
	_ZN17CVCXTestTimerWait5WaitLEm @ 63 NONAME
	_ZN17CVCXTestTimerWaitD0Ev @ 64 NONAME
	_ZN17CVCXTestTimerWaitD1Ev @ 65 NONAME
	_ZN17CVCXTestTimerWaitD2Ev @ 66 NONAME
	_ZN19CIptvTestActiveWait10ActiveWaitENS_22TIptvTestActiveWaitCmdE @ 67 NONAME
	_ZN19CIptvTestActiveWait10ConstructLEv @ 68 NONAME
	_ZN19CIptvTestActiveWait4NewLEv @ 69 NONAME
	_ZN19CIptvTestActiveWait4StopEv @ 70 NONAME
	_ZN19CIptvTestActiveWait5StartEv @ 71 NONAME
	_ZN19CIptvTestActiveWait9IsWaitingEv @ 72 NONAME
	_ZN19CIptvTestActiveWaitC1Ev @ 73 NONAME
	_ZN19CIptvTestActiveWaitC2Ev @ 74 NONAME
	_ZN19CIptvTestActiveWaitD0Ev @ 75 NONAME
	_ZN19CIptvTestActiveWaitD1Ev @ 76 NONAME
	_ZN19CIptvTestActiveWaitD2Ev @ 77 NONAME
	_ZN19CIptvTestVerifyData11VerifyDataLER7TDesC16RNS_13TVerifyResultE @ 78 NONAME
	_ZN19CIptvTestVerifyData16EnableTimestampsEi @ 79 NONAME
	_ZN19CIptvTestVerifyData16WriteVerifyDataLER7TDesC16S1_ @ 80 NONAME
	_ZN19CIptvTestVerifyData17CreateVerifyDataLER7TDesC16i @ 81 NONAME
	_ZN19CIptvTestVerifyData4NewLEv @ 82 NONAME
	_ZN19CIptvTestVerifyDataD0Ev @ 83 NONAME
	_ZN19CIptvTestVerifyDataD1Ev @ 84 NONAME
	_ZN19CIptvTestVerifyDataD2Ev @ 85 NONAME
	_ZN19CTestUtilConnection20TerminateConnectionLEv @ 86 NONAME
	_ZN19CTestUtilConnection24SetConnectionPreferencesEjm @ 87 NONAME
	_ZN19CTestUtilConnection4NewLEP27MTestUtilConnectionObserver @ 88 NONAME
	_ZN19CTestUtilConnection5NewLCEP27MTestUtilConnectionObserver @ 89 NONAME
	_ZN19CTestUtilConnection7AttachLEv @ 90 NONAME
	_ZN19CTestUtilConnection8ConnectLEv @ 91 NONAME
	_ZN19CTestUtilConnectionD0Ev @ 92 NONAME
	_ZN19CTestUtilConnectionD1Ev @ 93 NONAME
	_ZN19CTestUtilConnectionD2Ev @ 94 NONAME
	_ZN19CVCXTestMessageWait10AddMessageEl @ 95 NONAME
	_ZN19CVCXTestMessageWait10ConstructLEv @ 96 NONAME
	_ZN19CVCXTestMessageWait11WaitForAllLEii @ 97 NONAME
	_ZN19CVCXTestMessageWait14ReceiveMessageEli @ 98 NONAME
	_ZN19CVCXTestMessageWait15WaitForMessageLElii @ 99 NONAME
	_ZN19CVCXTestMessageWait21ResetReceivedMessagesEv @ 100 NONAME
	_ZN19CVCXTestMessageWait4NewLEP27MVCXTestMessageWaitObserver @ 101 NONAME
	_ZN19CVCXTestMessageWait5ResetEv @ 102 NONAME
	_ZN19CVCXTestMessageWait9CoolDownLEi @ 103 NONAME
	_ZN19CVCXTestMessageWaitC1EP27MVCXTestMessageWaitObserver @ 104 NONAME
	_ZN19CVCXTestMessageWaitC2EP27MVCXTestMessageWaitObserver @ 105 NONAME
	_ZN19CVCXTestMessageWaitD0Ev @ 106 NONAME
	_ZN19CVCXTestMessageWaitD1Ev @ 107 NONAME
	_ZN19CVCXTestMessageWaitD2Ev @ 108 NONAME
	_ZN19CVCXTestStatsKeeper10ActionEndLERK7TDesC16i @ 109 NONAME
	_ZN19CVCXTestStatsKeeper10ActionEndLEli @ 110 NONAME
	_ZN19CVCXTestStatsKeeper12ActionStartLERK7TDesC16S2_i @ 111 NONAME
	_ZN19CVCXTestStatsKeeper12ActionStartLElRK7TDesC16 @ 112 NONAME
	_ZN19CVCXTestStatsKeeper12ActionTraceLERK7TDesC16 @ 113 NONAME
	_ZN19CVCXTestStatsKeeper15ActionProgressLERK7TDesC16S2_ @ 114 NONAME
	_ZN19CVCXTestStatsKeeper15ActionProgressLElRK7TDesC16 @ 115 NONAME
	_ZN19CVCXTestStatsKeeper18StartStatsKeepingLERK7TDesC16S2_ @ 116 NONAME
	_ZN19CVCXTestStatsKeeper4NewLEv @ 117 NONAME
	_ZN20CIptvTestEventWaiter13CheckTimeoutsEv @ 118 NONAME
	_ZN20CIptvTestEventWaiter13EventHappenedEP14CIptvTestEventPS1_ @ 119 NONAME
	_ZN20CIptvTestEventWaiter13GetEventCountEv @ 120 NONAME
	_ZN20CIptvTestEventWaiter4NewLER28MIptvTestEventWaiterObserver @ 121 NONAME
	_ZN20CIptvTestEventWaiter5ResetEv @ 122 NONAME
	_ZN20CIptvTestEventWaiter8AddEventEP14CIptvTestEventi @ 123 NONAME
	_ZN20CIptvTestEventWaiterD0Ev @ 124 NONAME
	_ZN20CIptvTestEventWaiterD1Ev @ 125 NONAME
	_ZN20CIptvTestEventWaiterD2Ev @ 126 NONAME
	_ZN20CVCXTestPSSubscriber11WaitChangeLEv @ 127 NONAME
	_ZN20CVCXTestPSSubscriber3GetER6TDes16 @ 128 NONAME
	_ZN20CVCXTestPSSubscriber3GetERi @ 129 NONAME
	_ZN20CVCXTestPSSubscriber3SetERK7TDesC16 @ 130 NONAME
	_ZN20CVCXTestPSSubscriber3SetERi @ 131 NONAME
	_ZN20CVCXTestPSSubscriber4NewLE4TUidmN9RProperty5TTypeEP18MVCXTestPSObserver @ 132 NONAME
	_ZN20CVCXTestPSSubscriber5StartEv @ 133 NONAME
	_ZN20CVCXTestPSSubscriber7EndWaitEv @ 134 NONAME
	_ZN20CVCXTestPSSubscriber8DoCancelEv @ 135 NONAME
	_ZN20CVCXTestPSSubscriberD0Ev @ 136 NONAME
	_ZN20CVCXTestPSSubscriberD1Ev @ 137 NONAME
	_ZN20CVCXTestPSSubscriberD2Ev @ 138 NONAME
	_ZN21CIptvTestVideoCreator10ConstructLEv @ 139 NONAME
	_ZN21CIptvTestVideoCreator12CreateVideoLENS_18TIptvTestVideoTypeER7TDesC16i @ 140 NONAME
	_ZN21CIptvTestVideoCreator12GetVideoFileER6TDes16NS_18TIptvTestVideoTypeERK7TDesC16 @ 141 NONAME
	_ZN21CIptvTestVideoCreator13CreateVideosLENS_18TIptvTestVideoTypeER7TDesC16iR13RPointerArrayI7HBufC16E @ 142 NONAME
	_ZN21CIptvTestVideoCreator4NewLEv @ 143 NONAME
	_ZN21CIptvTestVideoCreatorC1Ev @ 144 NONAME
	_ZN21CIptvTestVideoCreatorC2Ev @ 145 NONAME
	_ZN21CIptvTestVideoCreatorD0Ev @ 146 NONAME
	_ZN21CIptvTestVideoCreatorD1Ev @ 147 NONAME
	_ZN21CIptvTestVideoCreatorD2Ev @ 148 NONAME
	_ZN24CIptvTestDownloadManager10ConstructLEv @ 149 NONAME
	_ZN24CIptvTestDownloadManager4NewLEP25MTestUtilDownloadObserver @ 150 NONAME
	_ZN24CIptvTestDownloadManager5NewLCEP25MTestUtilDownloadObserver @ 151 NONAME
	_ZN24CIptvTestDownloadManager8GetErrorER13RHttpDownloadRl @ 152 NONAME
	_ZN24CIptvTestDownloadManager9DownloadLER7TDesC16S1_S1_S1_li @ 153 NONAME
	_ZN24CIptvTestDownloadManagerD0Ev @ 154 NONAME
	_ZN24CIptvTestDownloadManagerD1Ev @ 155 NONAME
	_ZN24CIptvTestDownloadManagerD2Ev @ 156 NONAME
	_ZN25CTestUtilConnectionWaiter17WaitForConnectionEm @ 157 NONAME
	_ZN25CTestUtilConnectionWaiter18IsConnectionActiveEm @ 158 NONAME
	_ZN25CTestUtilConnectionWaiter27WaitUntilConnectionIsClosedEm @ 159 NONAME
	_ZN25CTestUtilConnectionWaiter4NewLEP27MTestUtilConnectionObserver @ 160 NONAME
	_ZN25CTestUtilConnectionWaiter5NewLCEP27MTestUtilConnectionObserver @ 161 NONAME
	_ZN25CTestUtilConnectionWaiterC1EP27MTestUtilConnectionObserver @ 162 NONAME
	_ZN25CTestUtilConnectionWaiterC2EP27MTestUtilConnectionObserver @ 163 NONAME
	_ZN25CTestUtilConnectionWaiterD0Ev @ 164 NONAME
	_ZN25CTestUtilConnectionWaiterD1Ev @ 165 NONAME
	_ZN25CTestUtilConnectionWaiterD2Ev @ 166 NONAME
	_ZN27CIptvTestMobilecrashWatcher16CheckNewCrashesLEv @ 167 NONAME
	_ZN27CIptvTestMobilecrashWatcher16ReturnNewCrashesER13RPointerArrayI7HBufC16E @ 168 NONAME
	_ZN27CIptvTestMobilecrashWatcher18ReadMobilecrashesLER13RPointerArrayI7HBufC16ERK7TDesC16 @ 169 NONAME
	_ZN27CIptvTestMobilecrashWatcher21CompareMobilecrashesLER13RPointerArrayI7HBufC16ES3_ @ 170 NONAME
	_ZN27CIptvTestMobilecrashWatcher22ReturnMobileCrashCountEv @ 171 NONAME
	_ZN27CIptvTestMobilecrashWatcher4NewLEi @ 172 NONAME
	_ZN27CIptvTestMobilecrashWatcher4NewLEv @ 173 NONAME
	_ZN27CIptvTestMobilecrashWatcherD0Ev @ 174 NONAME
	_ZN27CIptvTestMobilecrashWatcherD1Ev @ 175 NONAME
	_ZN27CIptvTestMobilecrashWatcherD2Ev @ 176 NONAME
	_ZTI11CVerifyFile @ 177 NONAME ; #<TI>#
	_ZTI14CIptvTestEvent @ 178 NONAME ; #<TI>#
	_ZTI14CIptvTestTimer @ 179 NONAME ; #<TI>#
	_ZTI14CVCXTestCommon @ 180 NONAME ; #<TI>#
	_ZTI16CIptvTestUtilALR @ 181 NONAME ; #<TI>#
	_ZTI17CVCXTestStatsItem @ 182 NONAME ; #<TI>#
	_ZTI17CVCXTestTimerWait @ 183 NONAME ; #<TI>#
	_ZTI19CIptvTestActiveWait @ 184 NONAME ; #<TI>#
	_ZTI19CIptvTestVerifyData @ 185 NONAME ; #<TI>#
	_ZTI19CTestUtilConnection @ 186 NONAME ; #<TI>#
	_ZTI19CVCXTestMessageWait @ 187 NONAME ; #<TI>#
	_ZTI19CVCXTestStatsKeeper @ 188 NONAME ; #<TI>#
	_ZTI20CIptvTestEventWaiter @ 189 NONAME ; #<TI>#
	_ZTI20CVCXTestPSSubscriber @ 190 NONAME ; #<TI>#
	_ZTI21CIptvTestVideoCreator @ 191 NONAME ; #<TI>#
	_ZTI24CIptvTestDownloadManager @ 192 NONAME ; #<TI>#
	_ZTI24CVCXTestStatsItemSummary @ 193 NONAME ; #<TI>#
	_ZTI25CTestUtilConnectionWaiter @ 194 NONAME ; #<TI>#
	_ZTI27CIptvTestMobilecrashWatcher @ 195 NONAME ; #<TI>#
	_ZTV11CVerifyFile @ 196 NONAME ; #<VT>#
	_ZTV14CIptvTestEvent @ 197 NONAME ; #<VT>#
	_ZTV14CIptvTestTimer @ 198 NONAME ; #<VT>#
	_ZTV14CVCXTestCommon @ 199 NONAME ; #<VT>#
	_ZTV16CIptvTestUtilALR @ 200 NONAME ; #<VT>#
	_ZTV17CVCXTestStatsItem @ 201 NONAME ; #<VT>#
	_ZTV17CVCXTestTimerWait @ 202 NONAME ; #<VT>#
	_ZTV19CIptvTestActiveWait @ 203 NONAME ; #<VT>#
	_ZTV19CIptvTestVerifyData @ 204 NONAME ; #<VT>#
	_ZTV19CTestUtilConnection @ 205 NONAME ; #<VT>#
	_ZTV19CVCXTestMessageWait @ 206 NONAME ; #<VT>#
	_ZTV19CVCXTestStatsKeeper @ 207 NONAME ; #<VT>#
	_ZTV20CIptvTestEventWaiter @ 208 NONAME ; #<VT>#
	_ZTV20CVCXTestPSSubscriber @ 209 NONAME ; #<VT>#
	_ZTV21CIptvTestVideoCreator @ 210 NONAME ; #<VT>#
	_ZTV24CIptvTestDownloadManager @ 211 NONAME ; #<VT>#
	_ZTV24CVCXTestStatsItemSummary @ 212 NONAME ; #<VT>#
	_ZTV25CTestUtilConnectionWaiter @ 213 NONAME ; #<VT>#
	_ZTV27CIptvTestMobilecrashWatcher @ 214 NONAME ; #<VT>#
	_ZN14CVCXTestCommon29ListFilesProcessesAndThreadsLER3RFs @ 215 NONAME

