EXPORTS
	??1CCRDvrApi@@UAE@XZ @ 1 NONAME ; CCRDvrApi::~CCRDvrApi(void)
	?CancelSetIap@CCRDvrApi@@QAEHXZ @ 2 NONAME ; int CCRDvrApi::CancelSetIap(void)
	?ChangeDvbhService@CCRDvrApi@@QAEHAAIABUSCRLiveParams@@@Z @ 3 NONAME ; int CCRDvrApi::ChangeDvbhService(unsigned int &, struct SCRLiveParams const &)
	?CloseSession@CCRDvrApi@@QAEHI@Z @ 4 NONAME ; int CCRDvrApi::CloseSession(unsigned int)
	?GetPosition@CCRDvrApi@@QAEHIAA_J0@Z @ 5 NONAME ; int CCRDvrApi::GetPosition(unsigned int, long long &, long long &)
	?NewL@CCRDvrApi@@SAPAV1@PAVMCREngineObserver@@@Z @ 6 NONAME ; class CCRDvrApi * CCRDvrApi::NewL(class MCREngineObserver *)
	?NewL@CCRDvrApi@@SAPAV1@XZ @ 7 NONAME ; class CCRDvrApi * CCRDvrApi::NewL(void)
	?PauseCommand@CCRDvrApi@@QAEHI@Z @ 8 NONAME ; int CCRDvrApi::PauseCommand(unsigned int)
	?PauseRecordStream@CCRDvrApi@@QAEHIABH@Z @ 9 NONAME ; int CCRDvrApi::PauseRecordStream(unsigned int, int const &)
	?PlayCommand@CCRDvrApi@@QAEHINN@Z @ 10 NONAME ; int CCRDvrApi::PlayCommand(unsigned int, double, double)
	?PlayDvbhStream@CCRDvrApi@@QAEHAAIABUSCRLiveParams@@@Z @ 11 NONAME ; int CCRDvrApi::PlayDvbhStream(unsigned int &, struct SCRLiveParams const &)
	?PlayNullSource@CCRDvrApi@@QAEHAAI@Z @ 12 NONAME ; int CCRDvrApi::PlayNullSource(unsigned int &)
	?PlayRtpFile@CCRDvrApi@@QAEHAAIABUSCRRtpPlayParams@@@Z @ 13 NONAME ; int CCRDvrApi::PlayRtpFile(unsigned int &, struct SCRRtpPlayParams const &)
	?PlayRtpFile@CCRDvrApi@@QAEHAAIABVRFile@@@Z @ 14 NONAME ; int CCRDvrApi::PlayRtpFile(unsigned int &, class RFile const &)
	?PlayRtspUrl@CCRDvrApi@@QAEHAAIABUSCRRtspParams@@@Z @ 15 NONAME ; int CCRDvrApi::PlayRtspUrl(unsigned int &, struct SCRRtspParams const &)
	?PlayRtspUrlToNullSink@CCRDvrApi@@QAEHAAIABUSCRRtspParams@@@Z @ 16 NONAME ; int CCRDvrApi::PlayRtspUrlToNullSink(unsigned int &, struct SCRRtspParams const &)
	?RecordCurrentStream@CCRDvrApi@@QAEHIABUSCRRecordParams@@@Z @ 17 NONAME ; int CCRDvrApi::RecordCurrentStream(unsigned int, struct SCRRecordParams const &)
	?RecordDvbhStream@CCRDvrApi@@QAEHAAIABUSCRLiveParams@@ABUSCRRecordParams@@@Z @ 18 NONAME ; int CCRDvrApi::RecordDvbhStream(unsigned int &, struct SCRLiveParams const &, struct SCRRecordParams const &)
	?RecordRtspStream@CCRDvrApi@@QAEHAAIABUSCRRtspParams@@ABUSCRRecordParams@@@Z @ 19 NONAME ; int CCRDvrApi::RecordRtspStream(unsigned int &, struct SCRRtspParams const &, struct SCRRecordParams const &)
	?SetIap@CCRDvrApi@@QAEHABI@Z @ 20 NONAME ; int CCRDvrApi::SetIap(unsigned int const &)
	?SetPosition@CCRDvrApi@@QAEHI_J@Z @ 21 NONAME ; int CCRDvrApi::SetPosition(unsigned int, long long)
	?StartTimeShift@CCRDvrApi@@QAEHAAII@Z @ 22 NONAME ; int CCRDvrApi::StartTimeShift(unsigned int &, unsigned int)
	?StopCommand@CCRDvrApi@@QAEHI@Z @ 23 NONAME ; int CCRDvrApi::StopCommand(unsigned int)
	?StopRecordStream@CCRDvrApi@@QAEHI@Z @ 24 NONAME ; int CCRDvrApi::StopRecordStream(unsigned int)
	?StopTimeShift@CCRDvrApi@@QAEHII@Z @ 25 NONAME ; int CCRDvrApi::StopTimeShift(unsigned int, unsigned int)

