EXPORTS
	??1CDvrSdpParser@@UAE@XZ @ 1 NONAME ; CDvrSdpParser::~CDvrSdpParser(void)
	?AudioAttributes@CDvrSdpParser@@QAEAAV?$RArray@VTPtrC8@@@@XZ @ 2 NONAME ; class RArray<class TPtrC8> & CDvrSdpParser::AudioAttributes(void)
	?AudioBitrate@CDvrSdpParser@@QAEHXZ @ 3 NONAME ; int CDvrSdpParser::AudioBitrate(void)
	?AudioControlAddr@CDvrSdpParser@@QAE?AVTPtrC8@@XZ @ 4 NONAME ; class TPtrC8 CDvrSdpParser::AudioControlAddr(void)
	?AudioIpAddr@CDvrSdpParser@@QAE?AVTPtrC8@@XZ @ 5 NONAME ; class TPtrC8 CDvrSdpParser::AudioIpAddr(void)
	?AudioPort@CDvrSdpParser@@QAEHXZ @ 6 NONAME ; int CDvrSdpParser::AudioPort(void)
	?AudioStreamId@CDvrSdpParser@@QAEHXZ @ 7 NONAME ; int CDvrSdpParser::AudioStreamId(void)
	?AudioTimerGranularity@CDvrSdpParser@@QAEKXZ @ 8 NONAME ; unsigned long CDvrSdpParser::AudioTimerGranularity(void)
	?DataStreams@CDvrSdpParser@@QAEAAV?$RArray@VTPtrC8@@@@XZ @ 9 NONAME ; class RArray<class TPtrC8> & CDvrSdpParser::DataStreams(void)
	?GetSdp@CDvrSdpParser@@QAEHAAVTPtrC8@@@Z @ 10 NONAME ; int CDvrSdpParser::GetSdp(class TPtrC8 &)
	?IsIpv4Sdp@CDvrSdpParser@@QAEHXZ @ 11 NONAME ; int CDvrSdpParser::IsIpv4Sdp(void)
	?IsLiveStream@CDvrSdpParser@@QAEHXZ @ 12 NONAME ; int CDvrSdpParser::IsLiveStream(void)
	?IsMultiCastSdp@CDvrSdpParser@@QAEHXZ @ 13 NONAME ; int CDvrSdpParser::IsMultiCastSdp(void)
	?IsRealMediaContent@CDvrSdpParser@@QAEHXZ @ 14 NONAME ; int CDvrSdpParser::IsRealMediaContent(void)
	?MediaIdentifierAudio@CDvrSdpParser@@QAEHXZ @ 15 NONAME ; int CDvrSdpParser::MediaIdentifierAudio(void)
	?MediaIdentifierVideo@CDvrSdpParser@@QAEHXZ @ 16 NONAME ; int CDvrSdpParser::MediaIdentifierVideo(void)
	?NewL@CDvrSdpParser@@SAPAV1@XZ @ 17 NONAME ; class CDvrSdpParser * CDvrSdpParser::NewL(void)
	?NewLC@CDvrSdpParser@@SAPAV1@XZ @ 18 NONAME ; class CDvrSdpParser * CDvrSdpParser::NewLC(void)
	?NewLineL@CDvrSdpParser@@QAEXHABVTDesC8@@@Z @ 19 NONAME ; void CDvrSdpParser::NewLineL(int, class TDesC8 const &)
	?SessionAttributes@CDvrSdpParser@@QAEAAV?$RArray@VTPtrC8@@@@XZ @ 20 NONAME ; class RArray<class TPtrC8> & CDvrSdpParser::SessionAttributes(void)
	?SupportedContent@CDvrSdpParser@@QAE?AW4TDvrPacketProvidings@1@XZ @ 21 NONAME ; enum CDvrSdpParser::TDvrPacketProvidings CDvrSdpParser::SupportedContent(void)
	?TryParseL@CDvrSdpParser@@QAEXABVTDesC8@@0@Z @ 22 NONAME ; void CDvrSdpParser::TryParseL(class TDesC8 const &, class TDesC8 const &)
	?TryParseL@CDvrSdpParser@@QAEXABVTDesC8@@@Z @ 23 NONAME ; void CDvrSdpParser::TryParseL(class TDesC8 const &)
	?VideoAttributes@CDvrSdpParser@@QAEAAV?$RArray@VTPtrC8@@@@XZ @ 24 NONAME ; class RArray<class TPtrC8> & CDvrSdpParser::VideoAttributes(void)
	?VideoBitrate@CDvrSdpParser@@QAEHXZ @ 25 NONAME ; int CDvrSdpParser::VideoBitrate(void)
	?VideoControlAddr@CDvrSdpParser@@QAE?AVTPtrC8@@XZ @ 26 NONAME ; class TPtrC8 CDvrSdpParser::VideoControlAddr(void)
	?VideoIpAddr@CDvrSdpParser@@QAE?AVTPtrC8@@XZ @ 27 NONAME ; class TPtrC8 CDvrSdpParser::VideoIpAddr(void)
	?VideoPort@CDvrSdpParser@@QAEHXZ @ 28 NONAME ; int CDvrSdpParser::VideoPort(void)
	?VideoStreamId@CDvrSdpParser@@QAEHXZ @ 29 NONAME ; int CDvrSdpParser::VideoStreamId(void)
	?VideoTimerGranularity@CDvrSdpParser@@QAEKXZ @ 30 NONAME ; unsigned long CDvrSdpParser::VideoTimerGranularity(void)

