EXPORTS
	??0CIptvTestActiveWait@@AAE@XZ @ 1 NONAME ; CIptvTestActiveWait::CIptvTestActiveWait(void)
	??0CIptvTestEvent@@QAE@ABVTDesC16@@H@Z @ 2 NONAME ; CIptvTestEvent::CIptvTestEvent(class TDesC16 const &, int)
	??0CIptvTestVideoCreator@@QAE@XZ @ 3 NONAME ; CIptvTestVideoCreator::CIptvTestVideoCreator(void)
	??0CTestUtilConnectionWaiter@@AAE@PAVMTestUtilConnectionObserver@@@Z @ 4 NONAME ; CTestUtilConnectionWaiter::CTestUtilConnectionWaiter(class MTestUtilConnectionObserver *)
	??0CVCXTestMessageWait@@AAE@PAVMVCXTestMessageWaitObserver@@@Z @ 5 NONAME ; CVCXTestMessageWait::CVCXTestMessageWait(class MVCXTestMessageWaitObserver *)
	??1CIptvTestActiveWait@@UAE@XZ @ 6 NONAME ; CIptvTestActiveWait::~CIptvTestActiveWait(void)
	??1CIptvTestDownloadManager@@UAE@XZ @ 7 NONAME ; CIptvTestDownloadManager::~CIptvTestDownloadManager(void)
	??1CIptvTestEvent@@UAE@XZ @ 8 NONAME ; CIptvTestEvent::~CIptvTestEvent(void)
	??1CIptvTestEventWaiter@@UAE@XZ @ 9 NONAME ; CIptvTestEventWaiter::~CIptvTestEventWaiter(void)
	??1CIptvTestMobilecrashWatcher@@UAE@XZ @ 10 NONAME ; CIptvTestMobilecrashWatcher::~CIptvTestMobilecrashWatcher(void)
	??1CIptvTestTimer@@UAE@XZ @ 11 NONAME ; CIptvTestTimer::~CIptvTestTimer(void)
	??1CIptvTestUtilALR@@UAE@XZ @ 12 NONAME ; CIptvTestUtilALR::~CIptvTestUtilALR(void)
	??1CIptvTestVerifyData@@UAE@XZ @ 13 NONAME ; CIptvTestVerifyData::~CIptvTestVerifyData(void)
	??1CIptvTestVideoCreator@@UAE@XZ @ 14 NONAME ; CIptvTestVideoCreator::~CIptvTestVideoCreator(void)
	??1CTestUtilConnection@@UAE@XZ @ 15 NONAME ; CTestUtilConnection::~CTestUtilConnection(void)
	??1CTestUtilConnectionWaiter@@UAE@XZ @ 16 NONAME ; CTestUtilConnectionWaiter::~CTestUtilConnectionWaiter(void)
	??1CVCXTestMessageWait@@UAE@XZ @ 17 NONAME ; CVCXTestMessageWait::~CVCXTestMessageWait(void)
	??1CVCXTestPSSubscriber@@UAE@XZ @ 18 NONAME ; CVCXTestPSSubscriber::~CVCXTestPSSubscriber(void)
	??1CVCXTestTimerWait@@UAE@XZ @ 19 NONAME ; CVCXTestTimerWait::~CVCXTestTimerWait(void)
	?ActionEndL@CVCXTestStatsKeeper@@QAEXABVTDesC16@@H@Z @ 20 NONAME ; void CVCXTestStatsKeeper::ActionEndL(class TDesC16 const &, int)
	?ActionEndL@CVCXTestStatsKeeper@@QAEXJH@Z @ 21 NONAME ; void CVCXTestStatsKeeper::ActionEndL(long, int)
	?ActionProgressL@CVCXTestStatsKeeper@@QAEXABVTDesC16@@0@Z @ 22 NONAME ; void CVCXTestStatsKeeper::ActionProgressL(class TDesC16 const &, class TDesC16 const &)
	?ActionProgressL@CVCXTestStatsKeeper@@QAEXJABVTDesC16@@@Z @ 23 NONAME ; void CVCXTestStatsKeeper::ActionProgressL(long, class TDesC16 const &)
	?ActionStartL@CVCXTestStatsKeeper@@QAEXABVTDesC16@@0H@Z @ 24 NONAME ; void CVCXTestStatsKeeper::ActionStartL(class TDesC16 const &, class TDesC16 const &, int)
	?ActionStartL@CVCXTestStatsKeeper@@QAEXJABVTDesC16@@@Z @ 25 NONAME ; void CVCXTestStatsKeeper::ActionStartL(long, class TDesC16 const &)
	?ActionTraceL@CVCXTestStatsKeeper@@QAEXABVTDesC16@@@Z @ 26 NONAME ; void CVCXTestStatsKeeper::ActionTraceL(class TDesC16 const &)
	?Activate@CIptvTestEvent@@QAEXXZ @ 27 NONAME ; void CIptvTestEvent::Activate(void)
	?ActiveWait@CIptvTestActiveWait@@QAEXW4TIptvTestActiveWaitCmd@1@@Z @ 28 NONAME ; void CIptvTestActiveWait::ActiveWait(enum CIptvTestActiveWait::TIptvTestActiveWaitCmd)
	?AddEvent@CIptvTestEventWaiter@@QAEHPAVCIptvTestEvent@@H@Z @ 29 NONAME ; int CIptvTestEventWaiter::AddEvent(class CIptvTestEvent *, int)
	?AddMessage@CVCXTestMessageWait@@QAEXJ@Z @ 30 NONAME ; void CVCXTestMessageWait::AddMessage(long)
	?AdvanceSystemTimeHours@CVCXTestCommon@@SAHH@Z @ 31 NONAME ; int CVCXTestCommon::AdvanceSystemTimeHours(int)
	?AdvanceSystemTimeMinutes@CVCXTestCommon@@SAHH@Z @ 32 NONAME ; int CVCXTestCommon::AdvanceSystemTimeMinutes(int)
	?AdvanceSystemTimeSeconds@CVCXTestCommon@@SAHH@Z @ 33 NONAME ; int CVCXTestCommon::AdvanceSystemTimeSeconds(int)
	?After@CIptvTestTimer@@QAEXVTTimeIntervalMicroSeconds32@@@Z @ 34 NONAME ; void CIptvTestTimer::After(class TTimeIntervalMicroSeconds32)
	?AttachL@CTestUtilConnection@@QAEXXZ @ 35 NONAME ; void CTestUtilConnection::AttachL(void)
	?CancelTimer@CIptvTestTimer@@QAEXXZ @ 36 NONAME ; void CIptvTestTimer::CancelTimer(void)
	?CheckNewCrashesL@CIptvTestMobilecrashWatcher@@QAEXXZ @ 37 NONAME ; void CIptvTestMobilecrashWatcher::CheckNewCrashesL(void)
	?CheckTimeouts@CIptvTestEventWaiter@@QAEHXZ @ 38 NONAME ; int CIptvTestEventWaiter::CheckTimeouts(void)
	?CompareMobilecrashesL@CIptvTestMobilecrashWatcher@@QAEHAAV?$RPointerArray@VHBufC16@@@@0@Z @ 39 NONAME ; int CIptvTestMobilecrashWatcher::CompareMobilecrashesL(class RPointerArray<class HBufC16> &, class RPointerArray<class HBufC16> &)
	?ConnectL@CTestUtilConnection@@QAEXXZ @ 40 NONAME ; void CTestUtilConnection::ConnectL(void)
	?ConstructL@CIptvTestActiveWait@@AAEXXZ @ 41 NONAME ; void CIptvTestActiveWait::ConstructL(void)
	?ConstructL@CIptvTestDownloadManager@@AAEXXZ @ 42 NONAME ; void CIptvTestDownloadManager::ConstructL(void)
	?ConstructL@CIptvTestVideoCreator@@AAEXXZ @ 43 NONAME ; void CIptvTestVideoCreator::ConstructL(void)
	?ConstructL@CVCXTestMessageWait@@AAEXXZ @ 44 NONAME ; void CVCXTestMessageWait::ConstructL(void)
	?ConstructL@CVCXTestTimerWait@@AAEXXZ @ 45 NONAME ; void CVCXTestTimerWait::ConstructL(void)
	?CoolDownL@CVCXTestMessageWait@@QAEXH@Z @ 46 NONAME ; void CVCXTestMessageWait::CoolDownL(int)
	?CopyMethodL@CIptvTestUtilALR@@QAEXAAVTDesC16@@00@Z @ 47 NONAME ; void CIptvTestUtilALR::CopyMethodL(class TDesC16 &, class TDesC16 &, class TDesC16 &)
	?CreateBadIapL@CVCXTestCommon@@QAEKAAVTDesC16@@@Z @ 48 NONAME ; unsigned long CVCXTestCommon::CreateBadIapL(class TDesC16 &)
	?CreateDestinationL@CIptvTestUtilALR@@QAEXAAVTDesC16@@@Z @ 49 NONAME ; void CIptvTestUtilALR::CreateDestinationL(class TDesC16 &)
	?CreateVerifyData@CVCXTestCommon@@QAEHAAVTDesC16@@H@Z @ 50 NONAME ; int CVCXTestCommon::CreateVerifyData(class TDesC16 &, int)
	?CreateVerifyDataL@CIptvTestVerifyData@@QAEHAAVTDesC16@@H@Z @ 51 NONAME ; int CIptvTestVerifyData::CreateVerifyDataL(class TDesC16 &, int)
	?CreateVideoFileL@CVCXTestCommon@@QAEXW4TIptvTestVideoType@CIptvTestVideoCreator@@AAVTDesC16@@H@Z @ 52 NONAME ; void CVCXTestCommon::CreateVideoFileL(enum CIptvTestVideoCreator::TIptvTestVideoType, class TDesC16 &, int)
	?CreateVideoFilesL@CVCXTestCommon@@QAEXW4TIptvTestVideoType@CIptvTestVideoCreator@@AAVTDesC16@@HAAV?$RPointerArray@VHBufC16@@@@@Z @ 53 NONAME ; void CVCXTestCommon::CreateVideoFilesL(enum CIptvTestVideoCreator::TIptvTestVideoType, class TDesC16 &, int, class RPointerArray<class HBufC16> &)
	?CreateVideoL@CIptvTestVideoCreator@@QAEXW4TIptvTestVideoType@1@AAVTDesC16@@H@Z @ 54 NONAME ; void CIptvTestVideoCreator::CreateVideoL(enum CIptvTestVideoCreator::TIptvTestVideoType, class TDesC16 &, int)
	?CreateVideosL@CIptvTestVideoCreator@@QAEXW4TIptvTestVideoType@1@AAVTDesC16@@HAAV?$RPointerArray@VHBufC16@@@@@Z @ 55 NONAME ; void CIptvTestVideoCreator::CreateVideosL(enum CIptvTestVideoCreator::TIptvTestVideoType, class TDesC16 &, int, class RPointerArray<class HBufC16> &)
	?Deactivate@CIptvTestEvent@@QAEXXZ @ 56 NONAME ; void CIptvTestEvent::Deactivate(void)
	?DeleteDestinationL@CIptvTestUtilALR@@QAEXAAVTDesC16@@@Z @ 57 NONAME ; void CIptvTestUtilALR::DeleteDestinationL(class TDesC16 &)
	?DeleteDummyFilesL@CVCXTestCommon@@QAEXH@Z @ 58 NONAME ; void CVCXTestCommon::DeleteDummyFilesL(int)
	?DeleteMethodL@CIptvTestUtilALR@@QAEXAAVTDesC16@@0@Z @ 59 NONAME ; void CIptvTestUtilALR::DeleteMethodL(class TDesC16 &, class TDesC16 &)
	?DoCancel@CVCXTestPSSubscriber@@EAEXXZ @ 60 NONAME ; void CVCXTestPSSubscriber::DoCancel(void)
	?DownloadL@CIptvTestDownloadManager@@QAEHAAVTDesC16@@000JH@Z @ 61 NONAME ; int CIptvTestDownloadManager::DownloadL(class TDesC16 &, class TDesC16 &, class TDesC16 &, class TDesC16 &, long, int)
	?EnableTimestamps@CIptvTestVerifyData@@QAEXH@Z @ 62 NONAME ; void CIptvTestVerifyData::EnableTimestamps(int)
	?EnableVerifyTimestamps@CVCXTestCommon@@QAEXH@Z @ 63 NONAME ; void CVCXTestCommon::EnableVerifyTimestamps(int)
	?EndWait@CVCXTestPSSubscriber@@QAEXXZ @ 64 NONAME ; void CVCXTestPSSubscriber::EndWait(void)
	?EnsureFileIsNotInUse@CVCXTestCommon@@QAEHABVTPtrC16@@@Z @ 65 NONAME ; int CVCXTestCommon::EnsureFileIsNotInUse(class TPtrC16 const &)
	?EventHappened@CIptvTestEventWaiter@@QAEHPAVCIptvTestEvent@@PAPAV2@@Z @ 66 NONAME ; int CIptvTestEventWaiter::EventHappened(class CIptvTestEvent *, class CIptvTestEvent * *)
	?Get@CVCXTestPSSubscriber@@QAEHAAH@Z @ 67 NONAME ; int CVCXTestPSSubscriber::Get(int &)
	?Get@CVCXTestPSSubscriber@@QAEHAAVTDes16@@@Z @ 68 NONAME ; int CVCXTestPSSubscriber::Get(class TDes16 &)
	?GetDestinationIdL@CIptvTestUtilALR@@QAEHAAVTDesC16@@@Z @ 69 NONAME ; int CIptvTestUtilALR::GetDestinationIdL(class TDesC16 &)
	?GetError@CIptvTestDownloadManager@@QAEXAAVRHttpDownload@@AAJ@Z @ 70 NONAME ; void CIptvTestDownloadManager::GetError(class RHttpDownload &, long &)
	?GetEventCount@CIptvTestEventWaiter@@QAEHXZ @ 71 NONAME ; int CIptvTestEventWaiter::GetEventCount(void)
	?GetFileSize@CVCXTestCommon@@QAEHAAVTDesC16@@AAK@Z @ 72 NONAME ; int CVCXTestCommon::GetFileSize(class TDesC16 &, unsigned long &)
	?GetIapIdByNameL@CVCXTestCommon@@QAEHABVTDesC16@@AAK@Z @ 73 NONAME ; int CVCXTestCommon::GetIapIdByNameL(class TDesC16 const &, unsigned long &)
	?GetIapIdByTypeL@CVCXTestCommon@@QAEHW4TIptvTestIapType@1@AAKH@Z @ 74 NONAME ; int CVCXTestCommon::GetIapIdByTypeL(enum CVCXTestCommon::TIptvTestIapType, unsigned long &, int)
	?GetIapIdL@CVCXTestCommon@@QAEHABVTDesC16@@AAK@Z @ 75 NONAME ; int CVCXTestCommon::GetIapIdL(class TDesC16 const &, unsigned long &)
	?GetIapNameById@CVCXTestCommon@@QAEHAAVTDes16@@K@Z @ 76 NONAME ; int CVCXTestCommon::GetIapNameById(class TDes16 &, unsigned long)
	?GetName@CIptvTestEvent@@QAEXAAVTDes16@@@Z @ 77 NONAME ; void CIptvTestEvent::GetName(class TDes16 &)
	?GetPSProperty@CVCXTestCommon@@SAHVTUid@@IAAH@Z @ 78 NONAME ; int CVCXTestCommon::GetPSProperty(class TUid, unsigned int, int &)
	?GetPSProperty@CVCXTestCommon@@SAHVTUid@@IAAVTDes16@@@Z @ 79 NONAME ; int CVCXTestCommon::GetPSProperty(class TUid, unsigned int, class TDes16 &)
	?GetState@CTestUtilConnection@@QAE?AW4TConnectionState@1@XZ @ 80 NONAME ; enum CTestUtilConnection::TConnectionState CTestUtilConnection::GetState(void)
	?GetVideoFile@CIptvTestVideoCreator@@AAEXAAVTDes16@@W4TIptvTestVideoType@1@ABVTDesC16@@@Z @ 81 NONAME ; void CIptvTestVideoCreator::GetVideoFile(class TDes16 &, enum CIptvTestVideoCreator::TIptvTestVideoType, class TDesC16 const &)
	?HasTimeouted@CIptvTestEvent@@QAEHAAVTTime@@@Z @ 82 NONAME ; int CIptvTestEvent::HasTimeouted(class TTime &)
	?IsConnectionActive@CTestUtilConnectionWaiter@@QAEHK@Z @ 83 NONAME ; int CTestUtilConnectionWaiter::IsConnectionActive(unsigned long)
	?IsWaiting@CIptvTestActiveWait@@QAEHXZ @ 84 NONAME ; int CIptvTestActiveWait::IsWaiting(void)
	?ListDir@CVCXTestCommon@@QAEHABVTDesC16@@H@Z @ 85 NONAME ; int CVCXTestCommon::ListDir(class TDesC16 const &, int)
	?NewL@CIptvTestActiveWait@@SAPAV1@XZ @ 86 NONAME ; class CIptvTestActiveWait * CIptvTestActiveWait::NewL(void)
	?NewL@CIptvTestDownloadManager@@SAPAV1@PAVMTestUtilDownloadObserver@@@Z @ 87 NONAME ; class CIptvTestDownloadManager * CIptvTestDownloadManager::NewL(class MTestUtilDownloadObserver *)
	?NewL@CIptvTestEventWaiter@@SAPAV1@AAVMIptvTestEventWaiterObserver@@@Z @ 88 NONAME ; class CIptvTestEventWaiter * CIptvTestEventWaiter::NewL(class MIptvTestEventWaiterObserver &)
	?NewL@CIptvTestMobilecrashWatcher@@SAPAV1@H@Z @ 89 NONAME ; class CIptvTestMobilecrashWatcher * CIptvTestMobilecrashWatcher::NewL(int)
	?NewL@CIptvTestMobilecrashWatcher@@SAPAV1@XZ @ 90 NONAME ; class CIptvTestMobilecrashWatcher * CIptvTestMobilecrashWatcher::NewL(void)
	?NewL@CIptvTestTimer@@SAPAV1@AAVMIptvTestTimerObserver@@H@Z @ 91 NONAME ; class CIptvTestTimer * CIptvTestTimer::NewL(class MIptvTestTimerObserver &, int)
	?NewL@CIptvTestUtilALR@@SAPAV1@XZ @ 92 NONAME ; class CIptvTestUtilALR * CIptvTestUtilALR::NewL(void)
	?NewL@CIptvTestVerifyData@@SAPAV1@XZ @ 93 NONAME ; class CIptvTestVerifyData * CIptvTestVerifyData::NewL(void)
	?NewL@CIptvTestVideoCreator@@SAPAV1@XZ @ 94 NONAME ; class CIptvTestVideoCreator * CIptvTestVideoCreator::NewL(void)
	?NewL@CTestUtilConnection@@SAPAV1@PAVMTestUtilConnectionObserver@@@Z @ 95 NONAME ; class CTestUtilConnection * CTestUtilConnection::NewL(class MTestUtilConnectionObserver *)
	?NewL@CTestUtilConnectionWaiter@@SAPAV1@PAVMTestUtilConnectionObserver@@@Z @ 96 NONAME ; class CTestUtilConnectionWaiter * CTestUtilConnectionWaiter::NewL(class MTestUtilConnectionObserver *)
	?NewL@CVCXTestCommon@@SAPAV1@XZ @ 97 NONAME ; class CVCXTestCommon * CVCXTestCommon::NewL(void)
	?NewL@CVCXTestMessageWait@@SAPAV1@PAVMVCXTestMessageWaitObserver@@@Z @ 98 NONAME ; class CVCXTestMessageWait * CVCXTestMessageWait::NewL(class MVCXTestMessageWaitObserver *)
	?NewL@CVCXTestPSSubscriber@@SAPAV1@VTUid@@KW4TType@RProperty@@PAVMVCXTestPSObserver@@@Z @ 99 NONAME ; class CVCXTestPSSubscriber * CVCXTestPSSubscriber::NewL(class TUid, unsigned long, enum RProperty::TType, class MVCXTestPSObserver *)
	?NewL@CVCXTestStatsKeeper@@SAPAV1@XZ @ 100 NONAME ; class CVCXTestStatsKeeper * CVCXTestStatsKeeper::NewL(void)
	?NewL@CVCXTestTimerWait@@SAPAV1@XZ @ 101 NONAME ; class CVCXTestTimerWait * CVCXTestTimerWait::NewL(void)
	?NewLC@CIptvTestDownloadManager@@SAPAV1@PAVMTestUtilDownloadObserver@@@Z @ 102 NONAME ; class CIptvTestDownloadManager * CIptvTestDownloadManager::NewLC(class MTestUtilDownloadObserver *)
	?NewLC@CIptvTestUtilALR@@SAPAV1@XZ @ 103 NONAME ; class CIptvTestUtilALR * CIptvTestUtilALR::NewLC(void)
	?NewLC@CTestUtilConnection@@SAPAV1@PAVMTestUtilConnectionObserver@@@Z @ 104 NONAME ; class CTestUtilConnection * CTestUtilConnection::NewLC(class MTestUtilConnectionObserver *)
	?NewLC@CTestUtilConnectionWaiter@@SAPAV1@PAVMTestUtilConnectionObserver@@@Z @ 105 NONAME ; class CTestUtilConnectionWaiter * CTestUtilConnectionWaiter::NewLC(class MTestUtilConnectionObserver *)
	?ParseIntFromString@CVCXTestCommon@@SAHAAHAAVTDesC16@@@Z @ 106 NONAME ; int CVCXTestCommon::ParseIntFromString(int &, class TDesC16 &)
	?PrintIaps@CVCXTestCommon@@QAEXXZ @ 107 NONAME ; void CVCXTestCommon::PrintIaps(void)
	?ReadMobilecrashesL@CIptvTestMobilecrashWatcher@@QAEXAAV?$RPointerArray@VHBufC16@@@@ABVTDesC16@@@Z @ 108 NONAME ; void CIptvTestMobilecrashWatcher::ReadMobilecrashesL(class RPointerArray<class HBufC16> &, class TDesC16 const &)
	?ReceiveMessage@CVCXTestMessageWait@@QAEXJH@Z @ 109 NONAME ; void CVCXTestMessageWait::ReceiveMessage(long, int)
	?RemoveUsedDestinationCenRepL@CIptvTestUtilALR@@QAEXXZ @ 110 NONAME ; void CIptvTestUtilALR::RemoveUsedDestinationCenRepL(void)
	?Reset@CIptvTestEventWaiter@@QAEHXZ @ 111 NONAME ; int CIptvTestEventWaiter::Reset(void)
	?Reset@CVCXTestMessageWait@@QAEXXZ @ 112 NONAME ; void CVCXTestMessageWait::Reset(void)
	?ResetReceivedMessages@CVCXTestMessageWait@@QAEXXZ @ 113 NONAME ; void CVCXTestMessageWait::ResetReceivedMessages(void)
	?ReturnMobileCrashCount@CIptvTestMobilecrashWatcher@@QAEHXZ @ 114 NONAME ; int CIptvTestMobilecrashWatcher::ReturnMobileCrashCount(void)
	?ReturnNewCrashes@CIptvTestMobilecrashWatcher@@QAEHAAV?$RPointerArray@VHBufC16@@@@@Z @ 115 NONAME ; int CIptvTestMobilecrashWatcher::ReturnNewCrashes(class RPointerArray<class HBufC16> &)
	?Set@CVCXTestPSSubscriber@@QAEHAAH@Z @ 116 NONAME ; int CVCXTestPSSubscriber::Set(int &)
	?Set@CVCXTestPSSubscriber@@QAEHABVTDesC16@@@Z @ 117 NONAME ; int CVCXTestPSSubscriber::Set(class TDesC16 const &)
	?SetConnectionPreferences@CTestUtilConnection@@QAEXIK@Z @ 118 NONAME ; void CTestUtilConnection::SetConnectionPreferences(unsigned int, unsigned long)
	?SetDriveFreeSpaceL@CVCXTestCommon@@QAEXHI@Z @ 119 NONAME ; void CVCXTestCommon::SetDriveFreeSpaceL(int, unsigned int)
	?SetMethodBoolAttributeL@CIptvTestUtilALR@@QAEXAAVTDesC16@@0HH@Z @ 120 NONAME ; void CIptvTestUtilALR::SetMethodBoolAttributeL(class TDesC16 &, class TDesC16 &, int, int)
	?SetMethodIntAttributeL@CIptvTestUtilALR@@QAEXAAVTDesC16@@0HH@Z @ 121 NONAME ; void CIptvTestUtilALR::SetMethodIntAttributeL(class TDesC16 &, class TDesC16 &, int, int)
	?SetMethodPriorityL@CIptvTestUtilALR@@QAEXAAVTDesC16@@0K@Z @ 122 NONAME ; void CIptvTestUtilALR::SetMethodPriorityL(class TDesC16 &, class TDesC16 &, unsigned long)
	?SetMethodStringAttributeL@CIptvTestUtilALR@@QAEXAAVTDesC16@@0H0@Z @ 123 NONAME ; void CIptvTestUtilALR::SetMethodStringAttributeL(class TDesC16 &, class TDesC16 &, int, class TDesC16 &)
	?SetPSProperty@CVCXTestCommon@@SAHVTUid@@IABVTDesC16@@@Z @ 124 NONAME ; int CVCXTestCommon::SetPSProperty(class TUid, unsigned int, class TDesC16 const &)
	?SetPSProperty@CVCXTestCommon@@SAHVTUid@@IH@Z @ 125 NONAME ; int CVCXTestCommon::SetPSProperty(class TUid, unsigned int, int)
	?SetSystemTime@CVCXTestCommon@@SAHVTTime@@@Z @ 126 NONAME ; int CVCXTestCommon::SetSystemTime(class TTime)
	?SetTimeZone@CVCXTestCommon@@SAHAAVTDesC16@@@Z @ 127 NONAME ; int CVCXTestCommon::SetTimeZone(class TDesC16 &)
	?SetUsedDestinationL@CIptvTestUtilALR@@QAEXAAVTDesC16@@@Z @ 128 NONAME ; void CIptvTestUtilALR::SetUsedDestinationL(class TDesC16 &)
	?Start@CIptvTestActiveWait@@QAEHXZ @ 129 NONAME ; int CIptvTestActiveWait::Start(void)
	?Start@CVCXTestPSSubscriber@@QAEXXZ @ 130 NONAME ; void CVCXTestPSSubscriber::Start(void)
	?StartStatsKeepingL@CVCXTestStatsKeeper@@QAEXABVTDesC16@@0@Z @ 131 NONAME ; void CVCXTestStatsKeeper::StartStatsKeepingL(class TDesC16 const &, class TDesC16 const &)
	?Stop@CIptvTestActiveWait@@QAEHXZ @ 132 NONAME ; int CIptvTestActiveWait::Stop(void)
	?TerminateConnectionL@CTestUtilConnection@@QAEXXZ @ 133 NONAME ; void CTestUtilConnection::TerminateConnectionL(void)
	?TerminateDestinationConnectionsL@CIptvTestUtilALR@@QAEXAAVTDesC16@@@Z @ 134 NONAME ; void CIptvTestUtilALR::TerminateDestinationConnectionsL(class TDesC16 &)
	?VerifyData@CVCXTestCommon@@QAEHAAVTDesC16@@AAW4TVerifyResult@CIptvTestVerifyData@@@Z @ 135 NONAME ; int CVCXTestCommon::VerifyData(class TDesC16 &, enum CIptvTestVerifyData::TVerifyResult &)
	?VerifyDataL@CIptvTestVerifyData@@QAEHAAVTDesC16@@AAW4TVerifyResult@1@@Z @ 136 NONAME ; int CIptvTestVerifyData::VerifyDataL(class TDesC16 &, enum CIptvTestVerifyData::TVerifyResult &)
	?WaitChangeL@CVCXTestPSSubscriber@@QAEXXZ @ 137 NONAME ; void CVCXTestPSSubscriber::WaitChangeL(void)
	?WaitForAllL@CVCXTestMessageWait@@QAEXHH@Z @ 138 NONAME ; void CVCXTestMessageWait::WaitForAllL(int, int)
	?WaitForConnection@CTestUtilConnectionWaiter@@QAEXK@Z @ 139 NONAME ; void CTestUtilConnectionWaiter::WaitForConnection(unsigned long)
	?WaitForMessageL@CVCXTestMessageWait@@QAEXJHH@Z @ 140 NONAME ; void CVCXTestMessageWait::WaitForMessageL(long, int, int)
	?WaitL@CVCXTestTimerWait@@QAEXK@Z @ 141 NONAME ; void CVCXTestTimerWait::WaitL(unsigned long)
	?WaitUntilConnectionIsClosed@CTestUtilConnectionWaiter@@QAEXK@Z @ 142 NONAME ; void CTestUtilConnectionWaiter::WaitUntilConnectionIsClosed(unsigned long)
	?WriteVerifyData@CVCXTestCommon@@QAAHAAVTDesC16@@V?$TRefByValue@$$CBVTDesC16@@@@ZZ @ 143 NONAME ; int CVCXTestCommon::WriteVerifyData(class TDesC16 &, class TRefByValue<class TDesC16 const >, ...)
	?WriteVerifyData@CVCXTestCommon@@QAEHAAVTDesC16@@0@Z @ 144 NONAME ; int CVCXTestCommon::WriteVerifyData(class TDesC16 &, class TDesC16 &)
	?WriteVerifyDataL@CIptvTestVerifyData@@QAEHAAVTDesC16@@0@Z @ 145 NONAME ; int CIptvTestVerifyData::WriteVerifyDataL(class TDesC16 &, class TDesC16 &)
	?ListFilesProcessesAndThreadsL@CVCXTestCommon@@SAXAAVRFs@@@Z @ 146 NONAME ; void CVCXTestCommon::ListFilesProcessesAndThreadsL(class RFs &)

