EXPORTS
	??1CRtpPacket@@UAE@XZ @ 1 NONAME ; CRtpPacket::~CRtpPacket(void)
	??1CRtpTimer@@UAE@XZ @ 2 NONAME ; CRtpTimer::~CRtpTimer(void)
	??1CRtpTsConverter@@UAE@XZ @ 3 NONAME ; CRtpTsConverter::~CRtpTsConverter(void)
	??1CRtpUtil@@UAE@XZ @ 4 NONAME ; CRtpUtil::~CRtpUtil(void)
	?ConvertTs@CRtpTsConverter@@QAEIIH@Z @ 5 NONAME ; unsigned int CRtpTsConverter::ConvertTs(unsigned int, int)
	?GetImeiL@CRtpUtil@@SAXAAVTDes16@@@Z @ 6 NONAME ; void CRtpUtil::GetImeiL(class TDes16 &)
	?GetMimeInfo@CRtpUtil@@SAXAAVTDes16@@@Z @ 7 NONAME ; void CRtpUtil::GetMimeInfo(class TDes16 &)
	?GetMimeInfo@CRtpUtil@@SAXAAVTDes8@@@Z @ 8 NONAME ; void CRtpUtil::GetMimeInfo(class TDes8 &)
	?GetValue@CRtpUtil@@SAHABVTDesC8@@AAH@Z @ 9 NONAME ; int CRtpUtil::GetValue(class TDesC8 const &, int &)
	?GetValue@CRtpUtil@@SAHABVTDesC8@@AAI@Z @ 10 NONAME ; int CRtpUtil::GetValue(class TDesC8 const &, unsigned int &)
	?GetValueL@CRtpUtil@@SAHABVTDesC8@@@Z @ 11 NONAME ; int CRtpUtil::GetValueL(class TDesC8 const &)
	?GetValueL@CRtpUtil@@SAXABVTDesC8@@AAH@Z @ 12 NONAME ; void CRtpUtil::GetValueL(class TDesC8 const &, int &)
	?Init@CRtpTsConverter@@QAEXABI@Z @ 13 NONAME ; void CRtpTsConverter::Init(unsigned int const &)
	?Init@CRtpTsConverter@@QAEXABVTDesC8@@@Z @ 14 NONAME ; void CRtpTsConverter::Init(class TDesC8 const &)
	?Initiated@CRtpTsConverter@@QAEHXZ @ 15 NONAME ; int CRtpTsConverter::Initiated(void)
	?MakeBytes@CRtpUtil@@SAHABHAAVTDes8@@@Z @ 16 NONAME ; int CRtpUtil::MakeBytes(int const &, class TDes8 &)
	?MakeBytesL@CRtpUtil@@SAXABHAAVTDes8@@@Z @ 17 NONAME ; void CRtpUtil::MakeBytesL(int const &, class TDes8 &)
	?MakeBytesLC@CRtpUtil@@SAPAVHBufC8@@ABH@Z @ 18 NONAME ; class HBufC8 * CRtpUtil::MakeBytesLC(int const &)
	?NewL@CRtpPacket@@SAPAV1@XZ @ 19 NONAME ; class CRtpPacket * CRtpPacket::NewL(void)
	?NewL@CRtpTimer@@SAPAV1@AAVMRtpTimerObserver@@ABW4TPriority@CActive@@@Z @ 20 NONAME ; class CRtpTimer * CRtpTimer::NewL(class MRtpTimerObserver &, enum CActive::TPriority const &)
	?NewL@CRtpTsConverter@@SAPAV1@I@Z @ 21 NONAME ; class CRtpTsConverter * CRtpTsConverter::NewL(unsigned int)
	?NewL@CRtpUtil@@SAPAV1@XZ @ 22 NONAME ; class CRtpUtil * CRtpUtil::NewL(void)
	?NewLC@CRtpPacket@@SAPAV1@XZ @ 23 NONAME ; class CRtpPacket * CRtpPacket::NewLC(void)
	?NewLC@CRtpUtil@@SAPAV1@XZ @ 24 NONAME ; class CRtpUtil * CRtpUtil::NewLC(void)
	?ParseRtp@CRtpPacket@@QAEHABVTDesC8@@@Z @ 25 NONAME ; int CRtpPacket::ParseRtp(class TDesC8 const &)
	?SetTimeStamp@CRtpPacket@@QAEXK@Z @ 26 NONAME ; void CRtpPacket::SetTimeStamp(unsigned long)
	?SpecialPacketL@CRtpUtil@@SAPAVHBufC8@@H@Z @ 27 NONAME ; class HBufC8 * CRtpUtil::SpecialPacketL(int)
	?UnInitiate@CRtpTsConverter@@QAEXXZ @ 28 NONAME ; void CRtpTsConverter::UnInitiate(void)

