EXPORTS
	_ZN9CCRDvrApi11GetPositionEjRxS0_ @ 1 NONAME
	_ZN9CCRDvrApi11PlayCommandEjdd @ 2 NONAME
	_ZN9CCRDvrApi11PlayRtpFileERjRK16SCRRtpPlayParams @ 3 NONAME
	_ZN9CCRDvrApi11PlayRtpFileERjRK5RFile @ 4 NONAME
	_ZN9CCRDvrApi11PlayRtspUrlERjRK13SCRRtspParams @ 5 NONAME
	_ZN9CCRDvrApi11SetPositionEjx @ 6 NONAME
	_ZN9CCRDvrApi11StopCommandEj @ 7 NONAME
	_ZN9CCRDvrApi12CancelSetIapEv @ 8 NONAME
	_ZN9CCRDvrApi12CloseSessionEj @ 9 NONAME
	_ZN9CCRDvrApi12PauseCommandEj @ 10 NONAME
	_ZN9CCRDvrApi13StopTimeShiftEjj @ 11 NONAME
	_ZN9CCRDvrApi14PlayDvbhStreamERjRK13SCRLiveParams @ 12 NONAME
	_ZN9CCRDvrApi14PlayNullSourceERj @ 13 NONAME
	_ZN9CCRDvrApi14StartTimeShiftERjj @ 14 NONAME
	_ZN9CCRDvrApi16RecordDvbhStreamERjRK13SCRLiveParamsRK15SCRRecordParams @ 15 NONAME
	_ZN9CCRDvrApi16RecordRtspStreamERjRK13SCRRtspParamsRK15SCRRecordParams @ 16 NONAME
	_ZN9CCRDvrApi16StopRecordStreamEj @ 17 NONAME
	_ZN9CCRDvrApi17ChangeDvbhServiceERjRK13SCRLiveParams @ 18 NONAME
	_ZN9CCRDvrApi17PauseRecordStreamEjRKi @ 19 NONAME
	_ZN9CCRDvrApi19RecordCurrentStreamEjRK15SCRRecordParams @ 20 NONAME
	_ZN9CCRDvrApi21PlayRtspUrlToNullSinkERjRK13SCRRtspParams @ 21 NONAME
	_ZN9CCRDvrApi4NewLEP17MCREngineObserver @ 22 NONAME
	_ZN9CCRDvrApi4NewLEv @ 23 NONAME
	_ZN9CCRDvrApi6SetIapERKj @ 24 NONAME
	_ZN9CCRDvrApiD0Ev @ 25 NONAME
	_ZN9CCRDvrApiD1Ev @ 26 NONAME
	_ZN9CCRDvrApiD2Ev @ 27 NONAME
	_ZTI9CCRDvrApi @ 28 NONAME ; #<TI>#
	_ZTV9CCRDvrApi @ 29 NONAME ; #<VT>#

