EXPORTS
	??1CRtpClipHandler@@UAE@XZ @ 1 NONAME ; CRtpClipHandler::~CRtpClipHandler(void)
	??1CRtpClipManager@@UAE@XZ @ 2 NONAME ; CRtpClipManager::~CRtpClipManager(void)
	?DefaultRecParams@CRtpClipHandler@@QAEXAAVSRtpRecParams@MRtpFileWriteObserver@@H@Z @ 3 NONAME ; void CRtpClipHandler::DefaultRecParams(class MRtpFileWriteObserver::SRtpRecParams &, int)
	?DeleteRtpRepairer@CRtpClipManager@@QAEXPAVMRtpClipRepairObserver@@@Z @ 4 NONAME ; void CRtpClipManager::DeleteRtpRepairer(class MRtpClipRepairObserver *)
	?FixMetaHeaderL@CRtpClipManager@@QAEXABVTDesC16@@@Z @ 5 NONAME ; void CRtpClipManager::FixMetaHeaderL(class TDesC16 const &)
	?FixMetaHeaderL@CRtpClipManager@@QAEXPAVMRtpClipRepairObserver@@ABVTDesC16@@@Z @ 6 NONAME ; void CRtpClipManager::FixMetaHeaderL(class MRtpClipRepairObserver *, class TDesC16 const &)
	?GetClipDetailsL@CRtpClipManager@@QAEXAAVRFile@@AAVSRtpClipDetails@1@@Z @ 7 NONAME ; void CRtpClipManager::GetClipDetailsL(class RFile &, class CRtpClipManager::SRtpClipDetails &)
	?GetClipDetailsL@CRtpClipManager@@QAEXABVTDesC16@@AAVSRtpClipDetails@1@@Z @ 8 NONAME ; void CRtpClipManager::GetClipDetailsL(class TDesC16 const &, class CRtpClipManager::SRtpClipDetails &)
	?GetClipSdpL@CRtpClipHandler@@QBEPAVHBufC8@@XZ @ 9 NONAME ; class HBufC8 * CRtpClipHandler::GetClipSdpL(void) const
	?GetCurrentLength@CRtpClipHandler@@QBEIXZ @ 10 NONAME ; unsigned int CRtpClipHandler::GetCurrentLength(void) const
	?NewL@CRtpClipHandler@@SAPAV1@XZ @ 11 NONAME ; class CRtpClipHandler * CRtpClipHandler::NewL(void)
	?NewL@CRtpClipManager@@SAPAV1@XZ @ 12 NONAME ; class CRtpClipManager * CRtpClipManager::NewL(void)
	?NewLC@CRtpClipManager@@SAPAV1@XZ @ 13 NONAME ; class CRtpClipManager * CRtpClipManager::NewLC(void)
	?NextClipGroupL@CRtpClipHandler@@QAEXXZ @ 14 NONAME ; void CRtpClipHandler::NextClipGroupL(void)
	?ProtectClipL@CRtpClipManager@@QAEXABVTDesC16@@H@Z @ 15 NONAME ; void CRtpClipManager::ProtectClipL(class TDesC16 const &, int)
	?RegisterReadObserver@CRtpClipHandler@@QAEXPAVMRtpFileReadObserver@@@Z @ 16 NONAME ; void CRtpClipHandler::RegisterReadObserver(class MRtpFileReadObserver *)
	?RegisterWriteObserver@CRtpClipHandler@@QAEXPAVMRtpFileWriteObserver@@@Z @ 17 NONAME ; void CRtpClipHandler::RegisterWriteObserver(class MRtpFileWriteObserver *)
	?ResumeRecordingL@CRtpClipHandler@@QAEXXZ @ 18 NONAME ; void CRtpClipHandler::ResumeRecordingL(void)
	?SaveNextGroupL@CRtpClipHandler@@QAEXAAVTPtr8@@IABW4TRtpSaveAction@MRtpFileWriteObserver@@@Z @ 19 NONAME ; void CRtpClipHandler::SaveNextGroupL(class TPtr8 &, unsigned int, enum MRtpFileWriteObserver::TRtpSaveAction const &)
	?SetSeekPointL@CRtpClipHandler@@QAEXI@Z @ 20 NONAME ; void CRtpClipHandler::SetSeekPointL(unsigned int)
	?StartPlayBackL@CRtpClipHandler@@QAEXABUSCRRtpPlayParams@@H@Z @ 21 NONAME ; void CRtpClipHandler::StartPlayBackL(struct SCRRtpPlayParams const &, int)
	?StartPlayBackL@CRtpClipHandler@@QAEXABVRFile@@@Z @ 22 NONAME ; void CRtpClipHandler::StartPlayBackL(class RFile const &)
	?StartRecordingL@CRtpClipHandler@@QAEXABVSRtpRecParams@MRtpFileWriteObserver@@ABW4TRtpSaveAction@3@@Z @ 23 NONAME ; void CRtpClipHandler::StartRecordingL(class MRtpFileWriteObserver::SRtpRecParams const &, enum MRtpFileWriteObserver::TRtpSaveAction const &)
	?StopPlayBack@CRtpClipHandler@@QAEXHI@Z @ 24 NONAME ; void CRtpClipHandler::StopPlayBack(int, unsigned int)
	?StopRecording@CRtpClipHandler@@QAEXH@Z @ 25 NONAME ; void CRtpClipHandler::StopRecording(int)
	?TimeShiftPauseL@CRtpClipHandler@@QAEXXZ @ 26 NONAME ; void CRtpClipHandler::TimeShiftPauseL(void)
	?UpdateRecordEndTime@CRtpClipHandler@@QAEXABVTTime@@@Z @ 27 NONAME ; void CRtpClipHandler::UpdateRecordEndTime(class TTime const &)
	?WritingActive@CRtpClipHandler@@QBEHXZ @ 28 NONAME ; int CRtpClipHandler::WritingActive(void) const

